#include <math.h>
#include <stdio.h>
#include <stdlib.h>
#include <string.h>

void main()
{
	int n=0;
	int i=0,j=0,k=0;
	int row,col;
	int str[100][100]={0};
	int sum;
	scanf("%d",&n);
	for(;i<n;i++)
	{
		sum=0;
		scanf("%d%d",&row,&col);
		for(j=0;j<row;j++)
			for(k=0;k<col;k++)
				scanf("%d",&str[j][k]);
		for(j=0;j<col;j++)
			sum+=str[0][j]+str[row-1][j];
		for(j=1;j<row-1;j++)
			sum+=str[j][0]+str[j][col-1];
		printf("%d\n",sum);
	}
}

